; Function Attrs: mustprogress nofree norecurse nosync nounwind willreturn memory(read, inaccessiblemem: none) uwtable
define dso_local noundef zeroext i1 @_ZNK5cmake22GetSuppressDevWarningsEv(ptr nocapture noundef nonnull readonly align 8 dereferenceable(2216) %0) local_unnamed_addr #12 align 2 {
  %2 = getelementptr inbounds i8, ptr %0, i64 1944
  %3 = load ptr, ptr %2, align 8
  %4 = getelementptr inbounds i8, ptr %3, i64 40
  %5 = load i8, ptr %4, align 8
  %6 = and i8 %5, 1
  %7 = icmp ne i8 %6, 0
  ret i1 %7
}